(i__main__
Character
p1
(dp2
S'weight'
p3
(lp4
I150
asS'money'
p5
(lp6
I0
aI0
aI0
aI59
aI0
asS'height'
p7
(lp8
(lp9
I7
aa(lp10
I2
aasS'initiative'
p11
(lp12
I3
asS'speed'
p13
(lp14
I25
asS'alignment'
p15
S'Chaotic Good'
p16
sS'weapons'
p17
(lp18
(lp19
S'oathbow'
p20
aI5
aS'1D8+DEX+PROF'
p21
aS'Extra 3d6 piercing against sworn enemy'
p22
aa(lp23
S'handaxe'
p24
aI5
aS'1D6'
p25
aS''
aasS'stats'
p26
(lp27
I7
aI17
aI13
aI13
aI12
aI14
asS'current_hitpoints'
p28
(lp29
I29
asS'languages'
p30
(lp31
S'English'
p32
aS'Sylvan'
p33
aS'Danish'
p34
asS'max_hitpoints'
p35
(lp36
I29
asS'inventory'
p37
(lp38
(lp39
S'lute'
p40
aI1
aa(lp41
S'hammer'
p42
aI1
aa(lp43
S'rations'
p44
aI2
aa(lp45
S'tinkers tools'
p46
aI1
aa(lp47
S'arrow'
p48
aI30
aasS'features_and_traits'
p49
S'Tough Skin:\nYour AC is equal to 12 + DEX modifier + CON modifier\nBardic Inspiration:\nA team mate can use an extra d10 when I inspire them with a tune\nCall of Nature:\nYou learn the druidcraft cantrip.\nForest Guardian:\nIf you spend the entirety of a short rest basking in open sunlight, you count as having eaten all that you need for that day, and, provided you were in an area with abundant fresh water, you also count as having drunk all the water you need for that day. Additionally, when you are not moving, you appear to be the same as a normal tree.\nTalk to Plants:\nYou can convey simple messages from plants.'
p50
sS'_class'
p51
S'Archer Bard'
p52
sS'armour_class'
p53
(lp54
I16
asS'skill_bonuses'
p55
(lp56
I0
aI0
aI0
aI0
aI0
aI0
aI0
aI0
aI0
aI0
aI1
aI0
aI0
aI0
aI0
aI0
aI0
aI0
asS'cantrips_spells'
p57
(lp58
(lp59
S'Druid Craft - Cantrip'
p60
aS'30ft'
p61
aS'1min'
p62
aa(lp63
S'Minor Illusion - Cantrip'
p64
ag61
ag62
aa(lp65
S'Magic Hand - Cantrip'
p66
ag61
ag62
aa(lp67
S"Tasha's Hideous Laughter - Lvl 1"
p68
ag61
ag62
aa(lp69
S'Comprehend Languages - Lvl 1'
p70
ag61
aS'60min'
p71
aasS'name'
p72
S'Herb'
p73
sS'level'
p74
(lp75
I3
asS'notes'
p76
(lp77
S''
asS'experience'
p78
(lp79
I0
asS'passive_perception'
p80
(lp81
I11
asS'race'
p82
S'Treefolk'
p83
sS'saving_throw_proficiencies'
p84
(lp85
I0
aI2
aI0
aI2
aI0
aI0
asS'age'
p86
(lp87
I150
asb.