(i__main__
Character
p1
(dp2
S'weight'
p3
(lp4
I150
asS'money'
p5
(lp6
V0
aV10
p7
aV0
aV70
p8
aV0
asS'height'
p9
(lp10
I7
aI2
asS'initiative'
p11
(lp12
I5
asS'speed'
p13
(lp14
I45
asS'alignment'
p15
VChaotic Good
p16
sS'weapons'
p17
(lp18
(lp19
S'oathbow'
p20
aI5
aS'1D8+DEX+PROF'
p21
aS'Extra 3d6 piercing against sworn enemy'
p22
aa(lp23
Vaximus prime
p24
aV2D4
p25
aV3
aVBurns people
p26
aasS'stats'
p27
(lp28
I10
aI17
aI13
aI13
aI12
aI14
asS'current_hitpoints'
p29
(lp30
I19
asS'languages'
p31
(lp32
S'English'
p33
aS'Sylvan'
p34
aS'Danish'
p35
asS'max_hitpoints'
p36
(lp37
I24
asS'inventory'
p38
(lp39
(lp40
S'lute'
p41
aI1
aa(lp42
S'hammer'
p43
aI1
aa(lp44
S'rations'
p45
aI2
aa(lp46
S'tinkers tools'
p47
aI1
aa(lp48
S'arrow'
p49
aI11
aa(lp50
S'lindsey'
p51
aI10
aasS'features_and_traits'
p52
S'Tough Skin:\nYour AC is equal to 12 + DEX modifier + CON modifier\nBardic Inspiration:\nA team mate can use an extra d10 when I inspire them with a tune\nCall of Nature:\nYou learn the druidcraft cantrip.\nForest Guardian:\nIf you spend the entirety of a short rest basking in open sunlight, you count as having eaten all that you need for that day, and, provided you were in an area with abundant fresh water, you also count as having drunk all the water you need for that day. Additionally, when you are not moving, you appear to be the same as a normal tree.\nTalk to Plants:\nYou can convey simple messages from plants.'
p53
sS'_class'
p54
VArcher Bard
p55
sS'armour_class'
p56
(lp57
I20
asS'skill_bonuses'
p58
(lp59
I0
aI-7
aI0
aI0
aI0
aI0
aI0
aI0
aI0
aI0
aI1
aI0
aI0
aI0
aI0
aI0
aI0
aI0
asS'name'
p60
VHerbo
p61
sS'level'
p62
(lp63
I5
asS'age'
p64
(lp65
I150
asS'experience'
p66
(lp67
I550
asS'passive_perception'
p68
(lp69
I6
asS'race'
p70
VTreefolk
p71
sb.